; Function Attrs: nounwind uwtable
define i32 @Mig_ManSuppSizeOne(ptr noundef readonly captures(none) %0) local_unnamed_addr #2 {
  %2 = getelementptr i8, ptr %0, i64 12
  %.val.i.i = load i32, ptr %2, align 4
  %3 = lshr i32 %.val.i.i, 1
  %4 = and i32 %3, 4095
  %5 = zext nneg i32 %4 to i64
  %6 = sub nsw i64 0, %5
  %7 = getelementptr inbounds %struct.Mig_Obj_t_, ptr %0, i64 %6
  %8 = getelementptr inbounds i8, ptr %7, i64 -16
  %9 = load ptr, ptr %8, align 8
  %10 = getelementptr inbounds nuw i8, ptr %9, i64 96
  %11 = load ptr, ptr %10, align 8
  %12 = icmp eq ptr %11, null
  br i1 %12, label %13, label %Mig_ObjIncrementTravId.exit

13:                                               ; preds = %1
  %14 = getelementptr inbounds nuw i8, ptr %9, i64 88
  %15 = getelementptr i8, ptr %9, i64 8
  %.val.i = load i32, ptr %15, align 8
  %16 = add nsw i32 %.val.i, 500
  %17 = load i32, ptr %14, align 8
  %.not.i.i.i = icmp slt i32 %17, %16
  br i1 %.not.i.i.i, label %18, label %Vec_IntGrow.exit.i.i

18:                                               ; preds = %13
  %19 = sext i32 %16 to i64
  %20 = shl nsw i64 %19, 2
  %21 = tail call noalias ptr @malloc(i64 noundef %20) #15
  store ptr %21, ptr %10, align 8
  store i32 %16, ptr %14, align 8
  br label %Vec_IntGrow.exit.i.i

Vec_IntGrow.exit.i.i:                             ; preds = %18, %13
  %22 = icmp sgt i32 %.val.i, -500
  br i1 %22, label %.lr.ph.i.i, label %Vec_IntFill.exit.i

.lr.ph.i.i:                                       ; preds = %Vec_IntGrow.exit.i.i
  %wide.trip.count.i.i = zext nneg i32 %16 to i64
  br label %23

23:                                               ; preds = %23, %.lr.ph.i.i
  %indvars.iv.i.i = phi i64 [ 0, %.lr.ph.i.i ], [ %indvars.iv.next.i.i, %23 ]
  %24 = load ptr, ptr %10, align 8
  %25 = getelementptr inbounds nuw i32, ptr %24, i64 %indvars.iv.i.i
  store i32 0, ptr %25, align 4
  %indvars.iv.next.i.i = add nuw nsw i64 %indvars.iv.i.i, 1
  %exitcond.not.i.i = icmp eq i64 %indvars.iv.next.i.i, %wide.trip.count.i.i
  br i1 %exitcond.not.i.i, label %Vec_IntFill.exit.i, label %23, !llvm.loop !8

Vec_IntFill.exit.i:                               ; preds = %23, %Vec_IntGrow.exit.i.i
  %26 = getelementptr inbounds nuw i8, ptr %9, i64 92
  store i32 %16, ptr %26, align 4
  %.val.i6.pre.i = load i32, ptr %2, align 4
  %.pre.i = lshr i32 %.val.i6.pre.i, 1
  %.pre8.i = and i32 %.pre.i, 4095
  %.pre10.i = zext nneg i32 %.pre8.i to i64
  %.pre12.i = sub nsw i64 0, %.pre10.i
  %.phi.trans.insert = getelementptr inbounds %struct.Mig_Obj_t_, ptr %0, i64 %.pre12.i
  %.phi.trans.insert4 = getelementptr inbounds i8, ptr %.phi.trans.insert, i64 -16
  %.pre = load ptr, ptr %.phi.trans.insert4, align 8
  br label %Mig_ObjIncrementTravId.exit

Mig_ObjIncrementTravId.exit:                      ; preds = %1, %Vec_IntFill.exit.i
  %27 = phi ptr [ %.pre, %Vec_IntFill.exit.i ], [ %9, %1 ]
  %28 = getelementptr inbounds nuw i8, ptr %27, i64 84
  %29 = load i32, ptr %28, align 4
  %30 = add nsw i32 %29, 1
  store i32 %30, ptr %28, align 4
  %.val.i3 = load i32, ptr %2, align 4
  %31 = lshr i32 %.val.i3, 1
  %32 = and i32 %31, 4095
  %33 = zext nneg i32 %32 to i64
  %34 = sub nsw i64 0, %33
  %35 = getelementptr inbounds %struct.Mig_Obj_t_, ptr %0, i64 %34
  %36 = getelementptr inbounds i8, ptr %35, i64 -16
  %37 = load ptr, ptr %36, align 8
  %38 = tail call i32 @Mig_ManSuppSize2_rec(ptr noundef %37, i32 noundef %31)
  ret i32 %38
}